; Function Attrs: inlinehint mustprogress uwtable
define internal fastcc i64 @"_ZZL21llama_tensor_get_typeR19quantize_state_impl9ggml_typePK11ggml_tensor11llama_ftypeENK3$_1clEiiPKc"(i32 %.0.val, i32 noundef %0, i32 noundef %1, ptr noundef %2) unnamed_addr #11 align 2 personality ptr @__gxx_personality_v0 {
  %4 = alloca i32, align 4
  %5 = alloca %"class.std::__cxx11::basic_string", align 8
  %6 = alloca %"class.std::__cxx11::basic_string", align 8
  store i32 %0, ptr %4, align 4, !tbaa !128
  %7 = icmp sgt i32 %.0.val, 1
  br i1 %7, label %8, label %44

8:                                                ; preds = %3
  %9 = call i32 (ptr, ptr, ...) @__isoc99_sscanf(ptr noundef %2, ptr noundef nonnull @.str.57, ptr noundef nonnull %4) #26
  %.not = icmp eq i32 %9, 1
  br i1 %.not, label %25, label %10

10:                                               ; preds = %8
  %11 = call ptr @__cxa_allocate_exception(i64 16) #26
  call void @llvm.lifetime.start.p0(i64 32, ptr nonnull %5) #26
  invoke void (ptr, ptr, ...) @_Z6formatB5cxx11PKcz(ptr dead_on_unwind nonnull writable sret(%"class.std::__cxx11::basic_string") align 8 %5, ptr noundef nonnull @.str.58, ptr noundef %2)
          to label %12 unwind label %_ZNSt7__cxx1112basic_stringIcSt11char_traitsIcESaIcEED2Ev.exit.thread

12:                                               ; preds = %10
  invoke void @_ZNSt13runtime_errorC1ERKNSt7__cxx1112basic_stringIcSt11char_traitsIcESaIcEEE(ptr noundef nonnull align 8 dereferenceable(16) %11, ptr noundef nonnull align 8 dereferenceable(32) %5)
          to label %13 unwind label %15

13:                                               ; preds = %12
  invoke void @__cxa_throw(ptr nonnull %11, ptr nonnull @_ZTISt13runtime_error, ptr nonnull @_ZNSt13runtime_errorD1Ev) #27
          to label %47 unwind label %15

_ZNSt7__cxx1112basic_stringIcSt11char_traitsIcESaIcEED2Ev.exit.thread: ; preds = %10
  %14 = landingpad { ptr, i32 }
          cleanup
  call void @llvm.lifetime.end.p0(i64 32, ptr nonnull %5) #26
  br label %.sink.split

15:                                               ; preds = %13, %12
  %.07 = phi i1 [ false, %13 ], [ true, %12 ]
  %16 = landingpad { ptr, i32 }
          cleanup
  %17 = load ptr, ptr %5, align 8, !tbaa !11
  %18 = getelementptr inbounds nuw i8, ptr %5, i64 16
  %19 = icmp eq ptr %17, %18
  br i1 %19, label %_ZNKSt7__cxx1112basic_stringIcSt11char_traitsIcESaIcEE11_M_is_localEv.exit.thread.i.i, label %_ZNSt7__cxx1112basic_stringIcSt11char_traitsIcESaIcEED2Ev.exit

_ZNKSt7__cxx1112basic_stringIcSt11char_traitsIcESaIcEE11_M_is_localEv.exit.thread.i.i: ; preds = %15
  %20 = getelementptr inbounds nuw i8, ptr %5, i64 8
  %21 = load i64, ptr %20, align 8, !tbaa !14
  %22 = icmp ult i64 %21, 16
  call void @llvm.assume(i1 %22)
  call void @llvm.lifetime.end.p0(i64 32, ptr nonnull %5) #26
  br i1 %.07, label %.sink.split, label %46

_ZNSt7__cxx1112basic_stringIcSt11char_traitsIcESaIcEED2Ev.exit: ; preds = %15
  %23 = load i64, ptr %18, align 8, !tbaa !13
  %24 = add i64 %23, 1
  call void @_ZdlPvm(ptr noundef %17, i64 noundef %24) #28
  call void @llvm.lifetime.end.p0(i64 32, ptr nonnull %5) #26
  br i1 %.07, label %.sink.split, label %46

25:                                               ; preds = %8
  %26 = load i32, ptr %4, align 4, !tbaa !128
  %27 = icmp sgt i32 %26, -1
  %.not15 = icmp slt i32 %26, %1
  %or.cond = and i1 %27, %.not15
  br i1 %or.cond, label %44, label %28

28:                                               ; preds = %25
  %29 = call ptr @__cxa_allocate_exception(i64 16) #26
  call void @llvm.lifetime.start.p0(i64 32, ptr nonnull %6) #26
  %30 = load i32, ptr %4, align 4, !tbaa !128
  invoke void (ptr, ptr, ...) @_Z6formatB5cxx11PKcz(ptr dead_on_unwind nonnull writable sret(%"class.std::__cxx11::basic_string") align 8 %6, ptr noundef nonnull @.str.59, i32 noundef %30, ptr noundef %2, i32 noundef %1)
          to label %31 unwind label %_ZNSt7__cxx1112basic_stringIcSt11char_traitsIcESaIcEED2Ev.exit22.thread

31:                                               ; preds = %28
  invoke void @_ZNSt13runtime_errorC1ERKNSt7__cxx1112basic_stringIcSt11char_traitsIcESaIcEEE(ptr noundef nonnull align 8 dereferenceable(16) %29, ptr noundef nonnull align 8 dereferenceable(32) %6)
          to label %32 unwind label %34

32:                                               ; preds = %31
  invoke void @__cxa_throw(ptr nonnull %29, ptr nonnull @_ZTISt13runtime_error, ptr nonnull @_ZNSt13runtime_errorD1Ev) #27
          to label %47 unwind label %34

_ZNSt7__cxx1112basic_stringIcSt11char_traitsIcESaIcEED2Ev.exit22.thread: ; preds = %28
  %33 = landingpad { ptr, i32 }
          cleanup
  call void @llvm.lifetime.end.p0(i64 32, ptr nonnull %6) #26
  br label %.sink.split

34:                                               ; preds = %32, %31
  %.0 = phi i1 [ false, %32 ], [ true, %31 ]
  %35 = landingpad { ptr, i32 }
          cleanup
  %36 = load ptr, ptr %6, align 8, !tbaa !11
  %37 = getelementptr inbounds nuw i8, ptr %6, i64 16
  %38 = icmp eq ptr %36, %37
  br i1 %38, label %_ZNKSt7__cxx1112basic_stringIcSt11char_traitsIcESaIcEE11_M_is_localEv.exit.thread.i.i21, label %_ZNSt7__cxx1112basic_stringIcSt11char_traitsIcESaIcEED2Ev.exit22

_ZNKSt7__cxx1112basic_stringIcSt11char_traitsIcESaIcEE11_M_is_localEv.exit.thread.i.i21: ; preds = %34
  %39 = getelementptr inbounds nuw i8, ptr %6, i64 8
  %40 = load i64, ptr %39, align 8, !tbaa !14
  %41 = icmp ult i64 %40, 16
  call void @llvm.assume(i1 %41)
  call void @llvm.lifetime.end.p0(i64 32, ptr nonnull %6) #26
  br i1 %.0, label %.sink.split, label %46

_ZNSt7__cxx1112basic_stringIcSt11char_traitsIcESaIcEED2Ev.exit22: ; preds = %34
  %42 = load i64, ptr %37, align 8, !tbaa !13
  %43 = add i64 %42, 1
  call void @_ZdlPvm(ptr noundef %36, i64 noundef %43) #28
  call void @llvm.lifetime.end.p0(i64 32, ptr nonnull %6) #26
  br i1 %.0, label %.sink.split, label %46

44:                                               ; preds = %25, %3
  %45 = phi i32 [ %26, %25 ], [ %0, %3 ]
  %.sroa.2.0.insert.ext.i = zext i32 %1 to i64
  %.sroa.2.0.insert.shift.i = shl nuw i64 %.sroa.2.0.insert.ext.i, 32
  %.sroa.0.0.insert.ext.i = zext i32 %45 to i64
  %.sroa.0.0.insert.insert.i = or disjoint i64 %.sroa.2.0.insert.shift.i, %.sroa.0.0.insert.ext.i
  ret i64 %.sroa.0.0.insert.insert.i

.sink.split:                                      ; preds = %_ZNSt7__cxx1112basic_stringIcSt11char_traitsIcESaIcEED2Ev.exit22, %_ZNSt7__cxx1112basic_stringIcSt11char_traitsIcESaIcEED2Ev.exit22.thread, %_ZNKSt7__cxx1112basic_stringIcSt11char_traitsIcESaIcEE11_M_is_localEv.exit.thread.i.i21, %_ZNSt7__cxx1112basic_stringIcSt11char_traitsIcESaIcEED2Ev.exit, %_ZNSt7__cxx1112basic_stringIcSt11char_traitsIcESaIcEED2Ev.exit.thread, %_ZNKSt7__cxx1112basic_stringIcSt11char_traitsIcESaIcEE11_M_is_localEv.exit.thread.i.i
  %.sink = phi ptr [ %11, %_ZNKSt7__cxx1112basic_stringIcSt11char_traitsIcESaIcEE11_M_is_localEv.exit.thread.i.i ], [ %11, %_ZNSt7__cxx1112basic_stringIcSt11char_traitsIcESaIcEED2Ev.exit.thread ], [ %11, %_ZNSt7__cxx1112basic_stringIcSt11char_traitsIcESaIcEED2Ev.exit ], [ %29, %_ZNKSt7__cxx1112basic_stringIcSt11char_traitsIcESaIcEE11_M_is_localEv.exit.thread.i.i21 ], [ %29, %_ZNSt7__cxx1112basic_stringIcSt11char_traitsIcESaIcEED2Ev.exit22.thread ], [ %29, %_ZNSt7__cxx1112basic_stringIcSt11char_traitsIcESaIcEED2Ev.exit22 ]
  %.pn17.pn.ph = phi { ptr, i32 } [ %16, %_ZNKSt7__cxx1112basic_stringIcSt11char_traitsIcESaIcEE11_M_is_localEv.exit.thread.i.i ], [ %14, %_ZNSt7__cxx1112basic_stringIcSt11char_traitsIcESaIcEED2Ev.exit.thread ], [ %16, %_ZNSt7__cxx1112basic_stringIcSt11char_traitsIcESaIcEED2Ev.exit ], [ %35, %_ZNKSt7__cxx1112basic_stringIcSt11char_traitsIcESaIcEE11_M_is_localEv.exit.thread.i.i21 ], [ %33, %_ZNSt7__cxx1112basic_stringIcSt11char_traitsIcESaIcEED2Ev.exit22.thread ], [ %35, %_ZNSt7__cxx1112basic_stringIcSt11char_traitsIcESaIcEED2Ev.exit22 ]
  call void @__cxa_free_exception(ptr %.sink) #26
  br label %46

46:                                               ; preds = %.sink.split, %_ZNKSt7__cxx1112basic_stringIcSt11char_traitsIcESaIcEE11_M_is_localEv.exit.thread.i.i21, %_ZNKSt7__cxx1112basic_stringIcSt11char_traitsIcESaIcEE11_M_is_localEv.exit.thread.i.i, %_ZNSt7__cxx1112basic_stringIcSt11char_traitsIcESaIcEED2Ev.exit22, %_ZNSt7__cxx1112basic_stringIcSt11char_traitsIcESaIcEED2Ev.exit
  %.pn17.pn = phi { ptr, i32 } [ %16, %_ZNSt7__cxx1112basic_stringIcSt11char_traitsIcESaIcEED2Ev.exit ], [ %35, %_ZNSt7__cxx1112basic_stringIcSt11char_traitsIcESaIcEED2Ev.exit22 ], [ %16, %_ZNKSt7__cxx1112basic_stringIcSt11char_traitsIcESaIcEE11_M_is_localEv.exit.thread.i.i ], [ %35, %_ZNKSt7__cxx1112basic_stringIcSt11char_traitsIcESaIcEE11_M_is_localEv.exit.thread.i.i21 ], [ %.pn17.pn.ph, %.sink.split ]
  resume { ptr, i32 } %.pn17.pn

47:                                               ; preds = %32, %13
  unreachable
}